target datalayout = "e-m:e-p270:32:32-p271:32:32-p272:64:64-i64:64-i128:128-f80:128-n8:16:32:64-S128"
target triple = "x86_64-pc-linux-gnu"

%struct.EC_PKEY_CTX = type { ptr, ptr, ptr, i8, i8, ptr, ptr, i64, i64 }
%struct.evp_pkey_ctx_st = type { i32, ptr, ptr, ptr, ptr, %union.anon, %struct.anon.4, ptr, ptr, ptr, i32, i32, ptr, ptr, ptr, ptr, ptr, i8, ptr }
%union.anon = type { %struct.anon.0 }
%struct.anon.0 = type { ptr, ptr }
%struct.anon.4 = type { ptr, ptr, i64, i8 }

@.str = private unnamed_addr constant [32 x i8] c"../openssl/crypto/ec/ec_pmeth.c\00", align 1
@__func__.pkey_ec_sign = private unnamed_addr constant [13 x i8] c"pkey_ec_sign\00", align 1

; Function Attrs: nounwind uwtable
define internal i32 @pkey_ec_sign(ptr noundef %0, ptr noundef %1, ptr noundef %2, ptr noundef %3, i64 noundef %4) #0 {
  %6 = alloca i32, align 4
  %7 = alloca ptr, align 8
  %8 = alloca ptr, align 8
  %9 = alloca ptr, align 8
  %10 = alloca ptr, align 8
  %11 = alloca i64, align 8
  %12 = alloca i32, align 4
  %13 = alloca i32, align 4
  %14 = alloca i32, align 4
  %15 = alloca ptr, align 8
  %16 = alloca ptr, align 8
  %17 = alloca i32, align 4
  %18 = alloca i32, align 4
  store ptr %0, ptr %7, align 8, !tbaa !3
  store ptr %1, ptr %8, align 8, !tbaa !39
  store ptr %2, ptr %9, align 8, !tbaa !40
  store ptr %3, ptr %10, align 8, !tbaa !39
  store i64 %4, ptr %11, align 8, !tbaa !42
  call void @llvm.lifetime.start.p0(i64 4, ptr %12) #7
  call void @llvm.lifetime.start.p0(i64 4, ptr %13) #7
  call void @llvm.lifetime.start.p0(i64 4, ptr %14) #7
  call void @llvm.lifetime.start.p0(i64 8, ptr %15) #7
  %19 = load ptr, ptr %7, align 8, !tbaa !3
  %20 = getelementptr inbounds nuw %struct.evp_pkey_ctx_st, ptr %19, i32 0, i32 16
  %21 = load ptr, ptr %20, align 8, !tbaa !17
  store ptr %21, ptr %15, align 8, !tbaa !8
  call void @llvm.lifetime.start.p0(i64 8, ptr %16) #7
  %22 = load ptr, ptr %7, align 8, !tbaa !3
  %23 = getelementptr inbounds nuw %struct.evp_pkey_ctx_st, ptr %22, i32 0, i32 14
  %24 = load ptr, ptr %23, align 8, !tbaa !38
  %25 = call ptr @EVP_PKEY_get0_EC_KEY(ptr noundef %24)
  store ptr %25, ptr %16, align 8, !tbaa !36
  call void @llvm.lifetime.start.p0(i64 4, ptr %17) #7
  %26 = load ptr, ptr %16, align 8, !tbaa !36
  %27 = call i32 @ECDSA_size(ptr noundef %26)
  store i32 %27, ptr %17, align 4, !tbaa !37
  %28 = load i32, ptr %17, align 4, !tbaa !37
  %29 = icmp sgt i32 %28, 0
  %30 = zext i1 %29 to i32
  %31 = icmp ne i32 %30, 0
  %32 = xor i1 %31, true
  %33 = xor i1 %32, true
  %34 = zext i1 %33 to i32
  %35 = sext i32 %34 to i64
  %36 = call i64 @llvm.expect.i64(i64 %35, i64 1)
  %37 = icmp ne i64 %36, 0
  br i1 %37, label %39, label %38

38:                                               ; preds = %5
  store i32 0, ptr %6, align 4
  store i32 1, ptr %18, align 4
  br label %81

39:                                               ; preds = %5
  %40 = load ptr, ptr %8, align 8, !tbaa !39
  %41 = icmp eq ptr %40, null
  br i1 %41, label %42, label %46

42:                                               ; preds = %39
  %43 = load i32, ptr %17, align 4, !tbaa !37
  %44 = sext i32 %43 to i64
  %45 = load ptr, ptr %9, align 8, !tbaa !40
  store i64 %44, ptr %45, align 8, !tbaa !42
  store i32 1, ptr %6, align 4
  store i32 1, ptr %18, align 4
  br label %81

46:                                               ; preds = %39
  %47 = load ptr, ptr %9, align 8, !tbaa !40
  %48 = load i64, ptr %47, align 8, !tbaa !42
  %49 = load i32, ptr %17, align 4, !tbaa !37
  %50 = sext i32 %49 to i64
  %51 = icmp ult i64 %48, %50
  br i1 %51, label %52, label %53

52:                                               ; preds = %46
  call void @ERR_new()
  call void @ERR_set_debug(ptr noundef @.str, i32 noundef 128, ptr noundef @__func__.pkey_ec_sign)
  call void (i32, i32, ptr, ...) @ERR_set_error(i32 noundef 16, i32 noundef 100, ptr noundef null)
  store i32 0, ptr %6, align 4
  store i32 1, ptr %18, align 4
  br label %81

53:                                               ; preds = %46
  %54 = load ptr, ptr %15, align 8, !tbaa !8
  %55 = getelementptr inbounds nuw %struct.EC_PKEY_CTX, ptr %54, i32 0, i32 1
  %56 = load ptr, ptr %55, align 8, !tbaa !29
  %57 = icmp ne ptr %56, null
  br i1 %57, label %58, label %63

58:                                               ; preds = %53
  %59 = load ptr, ptr %15, align 8, !tbaa !8
  %60 = getelementptr inbounds nuw %struct.EC_PKEY_CTX, ptr %59, i32 0, i32 1
  %61 = load ptr, ptr %60, align 8, !tbaa !29
  %62 = call i32 @EVP_MD_get_type(ptr noundef %61)
  br label %64

63:                                               ; preds = %53
  br label %64

64:                                               ; preds = %63, %58
  %65 = phi i32 [ %62, %58 ], [ 64, %63 ]
  store i32 %65, ptr %13, align 4, !tbaa !37
  %66 = load i32, ptr %13, align 4, !tbaa !37
  %67 = load ptr, ptr %10, align 8, !tbaa !39
  %68 = load i64, ptr %11, align 8, !tbaa !42
  %69 = trunc i64 %68 to i32
  %70 = load ptr, ptr %8, align 8, !tbaa !39
  %71 = load ptr, ptr %16, align 8, !tbaa !36
  %72 = call i32 @ECDSA_sign(i32 noundef %66, ptr noundef %67, i32 noundef %69, ptr noundef %70, ptr noundef %14, ptr noundef %71)
  store i32 %72, ptr %12, align 4, !tbaa !37
  %73 = load i32, ptr %12, align 4, !tbaa !37
  %74 = icmp sle i32 %73, 0
  br i1 %74, label %75, label %77

75:                                               ; preds = %64
  %76 = load i32, ptr %12, align 4, !tbaa !37
  store i32 %76, ptr %6, align 4
  store i32 1, ptr %18, align 4
  br label %81

77:                                               ; preds = %64
  %78 = load i32, ptr %14, align 4, !tbaa !37
  %79 = zext i32 %78 to i64
  %80 = load ptr, ptr %9, align 8, !tbaa !40
  store i64 %79, ptr %80, align 8, !tbaa !42
  store i32 1, ptr %6, align 4
  store i32 1, ptr %18, align 4
  br label %81

81:                                               ; preds = %77, %75, %52, %42, %38
  call void @llvm.lifetime.end.p0(i64 4, ptr %17) #7
  call void @llvm.lifetime.end.p0(i64 8, ptr %16) #7
  call void @llvm.lifetime.end.p0(i64 8, ptr %15) #7
  call void @llvm.lifetime.end.p0(i64 4, ptr %14) #7
  call void @llvm.lifetime.end.p0(i64 4, ptr %13) #7
  call void @llvm.lifetime.end.p0(i64 4, ptr %12) #7
  %82 = load i32, ptr %6, align 4
  ret i32 %82
}