; Function Attrs: nounwind uwtable
define internal range(i32 -2147483648, 2) i32 @pkey_ec_sign(ptr noundef readonly captures(none) %0, ptr noundef %1, ptr noundef captures(none) %2, ptr noundef %3, i64 noundef %4) #1 {
  %6 = alloca i32, align 4
  call void @llvm.lifetime.start.p0(i64 4, ptr nonnull %6) #6
  %7 = getelementptr inbounds nuw i8, ptr %0, i64 152
  %8 = load ptr, ptr %7, align 8, !tbaa !14
  %9 = getelementptr inbounds nuw i8, ptr %0, i64 136
  %10 = load ptr, ptr %9, align 8, !tbaa !33
  %11 = tail call ptr @EVP_PKEY_get0_EC_KEY(ptr noundef %10) #6
  %12 = tail call i32 @ECDSA_size(ptr noundef %11) #6
  %13 = icmp sgt i32 %12, 0
  br i1 %13, label %14, label %36, !prof !34

14:                                               ; preds = %5
  %15 = icmp eq ptr %1, null
  br i1 %15, label %16, label %18

16:                                               ; preds = %14
  %17 = zext nneg i32 %12 to i64
  store i64 %17, ptr %2, align 8, !tbaa !35
  br label %36

18:                                               ; preds = %14
  %19 = load i64, ptr %2, align 8, !tbaa !35
  %20 = zext nneg i32 %12 to i64
  %21 = icmp ult i64 %19, %20
  br i1 %21, label %22, label %23

22:                                               ; preds = %18
  tail call void @ERR_new() #6
  tail call void @ERR_set_debug(ptr noundef nonnull @.str, i32 noundef 128, ptr noundef nonnull @__func__.pkey_ec_sign) #6
  tail call void (i32, i32, ptr, ...) @ERR_set_error(i32 noundef 16, i32 noundef 100, ptr noundef null) #6
  br label %36

23:                                               ; preds = %18
  %24 = getelementptr inbounds nuw i8, ptr %8, i64 8
  %25 = load ptr, ptr %24, align 8, !tbaa !26
  %.not = icmp eq ptr %25, null
  br i1 %.not, label %28, label %26

26:                                               ; preds = %23
  %27 = tail call i32 @EVP_MD_get_type(ptr noundef nonnull %25) #6
  br label %28

28:                                               ; preds = %23, %26
  %29 = phi i32 [ %27, %26 ], [ 64, %23 ]
  %30 = trunc i64 %4 to i32
  %31 = call i32 @ECDSA_sign(i32 noundef %29, ptr noundef %3, i32 noundef %30, ptr noundef nonnull %1, ptr noundef nonnull %6, ptr noundef %11) #6
  %32 = icmp slt i32 %31, 1
  br i1 %32, label %36, label %33

33:                                               ; preds = %28
  %34 = load i32, ptr %6, align 4, !tbaa !36
  %35 = zext i32 %34 to i64
  store i64 %35, ptr %2, align 8, !tbaa !35
  br label %36

36:                                               ; preds = %28, %5, %33, %22, %16
  %.0 = phi i32 [ 1, %16 ], [ 0, %22 ], [ 1, %33 ], [ 0, %5 ], [ %31, %28 ]
  call void @llvm.lifetime.end.p0(i64 4, ptr nonnull %6) #6
  ret i32 %.0
}